target datalayout = "e-m:e-p270:32:32-p271:32:32-p272:64:64-i64:64-i128:128-f80:128-n8:16:32:64-S128"
target triple = "x86_64-pc-linux-gnu"

%class.JVMFlag = type { ptr, ptr, i32, i32 }

@.str.11 = private unnamed_addr constant [4 x i8] c"%lu\00", align 1
@.str.12 = private unnamed_addr constant [46 x i8] c"flag value must be an unsigned 64-bit integer\00", align 1

; Function Attrs: mustprogress nounwind uwtable
define linkonce_odr hidden noundef i32 @_ZNK7JVMFlag4typeEv(ptr noundef nonnull align 8 dereferenceable(24) %0) #1 comdat align 2 {
  %2 = alloca ptr, align 8
  store ptr %0, ptr %2, align 8
  %3 = load ptr, ptr %2, align 8
  %4 = getelementptr inbounds %class.JVMFlag, ptr %3, i32 0, i32 3
  %5 = load i32, ptr %4, align 4
  ret i32 %5
}

; Function Attrs: mustprogress nounwind uwtable
define linkonce_odr hidden noundef zeroext i1 @_ZNK7JVMFlag8is_ccstrEv(ptr noundef nonnull align 8 dereferenceable(24) %0) #1 comdat align 2 {
  %2 = alloca ptr, align 8
  store ptr %0, ptr %2, align 8
  %3 = load ptr, ptr %2, align 8
  %4 = getelementptr inbounds %class.JVMFlag, ptr %3, i32 0, i32 3
  %5 = load i32, ptr %4, align 4
  %6 = icmp eq i32 %5, 8
  br i1 %6, label %11, label %7

7:                                                ; preds = %1
  %8 = getelementptr inbounds %class.JVMFlag, ptr %3, i32 0, i32 3
  %9 = load i32, ptr %8, align 4
  %10 = icmp eq i32 %9, 9
  br label %11

11:                                               ; preds = %7, %1
  %12 = phi i1 [ true, %1 ], [ %10, %7 ]
  ret i1 %12
}

; Function Attrs: mustprogress nounwind uwtable
define linkonce_odr hidden noundef zeroext i1 @_ZN13JVMFlagAccess15is_correct_typeEPK7JVMFlagi(ptr noundef %0, i32 noundef %1) #1 comdat align 2 {
  %3 = alloca i1, align 1
  %4 = alloca ptr, align 8
  %5 = alloca i32, align 4
  store ptr %0, ptr %4, align 8
  store i32 %1, ptr %5, align 4
  %6 = load i32, ptr %5, align 4
  %7 = icmp eq i32 %6, 8
  br i1 %7, label %8, label %13

8:                                                ; preds = %2
  %9 = load ptr, ptr %4, align 8
  %10 = call noundef zeroext i1 @_ZNK7JVMFlag8is_ccstrEv(ptr noundef nonnull align 8 dereferenceable(24) %9)
  br i1 %10, label %12, label %11

11:                                               ; preds = %8
  store i1 false, ptr %3, align 1
  br label %21

12:                                               ; preds = %8
  br label %20

13:                                               ; preds = %2
  %14 = load ptr, ptr %4, align 8
  %15 = call noundef i32 @_ZNK7JVMFlag4typeEv(ptr noundef nonnull align 8 dereferenceable(24) %14)
  %16 = load i32, ptr %5, align 4
  %17 = icmp ne i32 %15, %16
  br i1 %17, label %18, label %19

18:                                               ; preds = %13
  store i1 false, ptr %3, align 1
  br label %21

19:                                               ; preds = %13
  br label %20

20:                                               ; preds = %19, %12
  store i1 true, ptr %3, align 1
  br label %21

21:                                               ; preds = %20, %18, %11
  %22 = load i1, ptr %3, align 1
  ret i1 %22
}

; Function Attrs: mustprogress nounwind uwtable
define linkonce_odr hidden noundef i32 @_ZN13JVMFlagAccess3setImLi5EEEN7JVMFlag5ErrorEPS1_PT_13JVMFlagOrigin(ptr noundef %0, ptr noundef %1, i32 noundef %2) #1 comdat align 2 {
  %4 = alloca i32, align 4
  %5 = alloca ptr, align 8
  %6 = alloca ptr, align 8
  %7 = alloca i32, align 4
  store ptr %0, ptr %5, align 8
  store ptr %1, ptr %6, align 8
  store i32 %2, ptr %7, align 4
  %8 = load ptr, ptr %5, align 8
  %9 = icmp eq ptr %8, null
  br i1 %9, label %10, label %11

10:                                               ; preds = %3
  store i32 7, ptr %4, align 4
  br label %20

11:                                               ; preds = %3
  %12 = load ptr, ptr %5, align 8
  %13 = call noundef zeroext i1 @_ZN13JVMFlagAccess15is_correct_typeEPK7JVMFlagi(ptr noundef %12, i32 noundef 5)
  br i1 %13, label %15, label %14

14:                                               ; preds = %11
  store i32 3, ptr %4, align 4
  br label %20

15:                                               ; preds = %11
  %16 = load ptr, ptr %5, align 8
  %17 = load ptr, ptr %6, align 8
  %18 = load i32, ptr %7, align 4
  %19 = call noundef i32 @_ZN13JVMFlagAccess8set_implEP7JVMFlagPv13JVMFlagOrigin(ptr noundef %16, ptr noundef %17, i32 noundef %18)
  store i32 %19, ptr %4, align 4
  br label %20

20:                                               ; preds = %15, %14, %10
  %21 = load i32, ptr %4, align 4
  ret i32 %21
}

; Function Attrs: mustprogress nounwind uwtable
define linkonce_odr hidden noundef ptr @_ZN7JVMFlag9find_flagEPKc(ptr noundef %0) #1 comdat align 2 {
  %2 = alloca ptr, align 8
  store ptr %0, ptr %2, align 8
  %3 = load ptr, ptr %2, align 8
  %4 = load ptr, ptr %2, align 8
  %5 = call i64 @strlen(ptr noundef %4) #10
  %6 = call noundef ptr @_ZN7JVMFlag9find_flagEPKcmbb(ptr noundef %3, i64 noundef %5, i1 noundef zeroext false, i1 noundef zeroext false)
  ret ptr %6
}

; Function Attrs: mustprogress nounwind uwtable
define linkonce_odr hidden noundef i32 @_ZN14WriteableFlags13set_flag_implImLi5EEEN7JVMFlag5ErrorEPKcT_13JVMFlagOriginR12FormatBufferILm80EE(ptr noundef %0, i64 noundef %1, i32 noundef %2, ptr noundef nonnull align 8 dereferenceable(88) %3) #1 comdat align 2 {
  %5 = alloca ptr, align 8
  %6 = alloca i64, align 8
  %7 = alloca i32, align 4
  %8 = alloca ptr, align 8
  %9 = alloca ptr, align 8
  %10 = alloca i32, align 4
  store ptr %0, ptr %5, align 8
  store i64 %1, ptr %6, align 8
  store i32 %2, ptr %7, align 4
  store ptr %3, ptr %8, align 8
  %11 = load ptr, ptr %5, align 8
  %12 = call noundef ptr @_ZN7JVMFlag9find_flagEPKc(ptr noundef %11)
  store ptr %12, ptr %9, align 8
  %13 = load ptr, ptr %9, align 8
  %14 = load i32, ptr %7, align 4
  %15 = call noundef i32 @_ZN13JVMFlagAccess3setImLi5EEEN7JVMFlag5ErrorEPS1_PT_13JVMFlagOrigin(ptr noundef %13, ptr noundef %6, i32 noundef %14)
  store i32 %15, ptr %10, align 4
  %16 = load i32, ptr %10, align 4
  %17 = load ptr, ptr %9, align 8
  %18 = load ptr, ptr %8, align 8
  call void @_ZL34print_flag_error_message_if_neededN7JVMFlag5ErrorEPKS_R12FormatBufferILm80EE(i32 noundef %16, ptr noundef %17, ptr noundef nonnull align 8 dereferenceable(88) %18)
  %19 = load i32, ptr %10, align 4
  ret i32 %19
}

; Function Attrs: mustprogress nounwind uwtable
define hidden noundef i32 @_ZN14WriteableFlags17set_uint64_t_flagEPKcS1_13JVMFlagOriginR12FormatBufferILm80EE(ptr noundef %0, ptr noundef %1, i32 noundef %2, ptr noundef nonnull align 8 dereferenceable(88) %3) #1 align 2 {
  %5 = alloca i32, align 4
  %6 = alloca ptr, align 8
  %7 = alloca ptr, align 8
  %8 = alloca i32, align 4
  %9 = alloca ptr, align 8
  %10 = alloca i64, align 8
  store ptr %0, ptr %6, align 8
  store ptr %1, ptr %7, align 8
  store i32 %2, ptr %8, align 4
  store ptr %3, ptr %9, align 8
  %11 = load ptr, ptr %7, align 8
  %12 = call i32 (ptr, ptr, ...) @__isoc99_sscanf(ptr noundef %11, ptr noundef @.str.11, ptr noundef %10) #11
  %13 = icmp eq i32 %12, 1
  br i1 %13, label %14, label %20

14:                                               ; preds = %4
  %15 = load ptr, ptr %6, align 8
  %16 = load i64, ptr %10, align 8
  %17 = load i32, ptr %8, align 4
  %18 = load ptr, ptr %9, align 8
  %19 = call noundef i32 @_ZN14WriteableFlags13set_flag_implImLi5EEEN7JVMFlag5ErrorEPKcT_13JVMFlagOriginR12FormatBufferILm80EE(ptr noundef %15, i64 noundef %16, i32 noundef %17, ptr noundef nonnull align 8 dereferenceable(88) %18)
  store i32 %19, ptr %5, align 4
  br label %22

20:                                               ; preds = %4
  %21 = load ptr, ptr %9, align 8
  call void (ptr, ptr, ...) @_ZN12FormatBufferILm80EE5printEPKcz(ptr noundef nonnull align 8 dereferenceable(88) %21, ptr noundef @.str.12)
  store i32 3, ptr %5, align 4
  br label %22

22:                                               ; preds = %20, %14
  %23 = load i32, ptr %5, align 4
  ret i32 %23
}